; Function Attrs: mustprogress uwtable
define noundef zeroext i1 @_ZN32pxrInternal_v0_24__pxrReserved__17_NurbsPatchToMesh55_GetMergedContributingSampleTimesForIntervalForTopologyERKSt10shared_ptrINS_21HdContainerDataSourceEEffPSt6vectorIfSaIfEE(ptr noundef nonnull align 8 dereferenceable(16) %0, float noundef %1, float noundef %2, ptr noundef %3) local_unnamed_addr #3 personality ptr @__gxx_personality_v0 {
  %5 = alloca %"struct.std::pair", align 8
  %6 = alloca [2 x %"class.std::shared_ptr.45"], align 16
  call void @_ZN32pxrInternal_v0_24__pxrReserved__17_NurbsPatchToMesh28_GetUVVertexCountDataSourcesERKSt10shared_ptrINS_21HdContainerDataSourceEE(ptr dead_on_unwind nonnull writable sret(%"struct.std::pair") align 8 %5, ptr noundef nonnull align 8 dereferenceable(16) %0)
  %7 = load ptr, ptr %5, align 8
  store ptr %7, ptr %6, align 16
  %8 = getelementptr inbounds nuw i8, ptr %6, i64 8
  %9 = getelementptr inbounds nuw i8, ptr %5, i64 8
  %10 = load ptr, ptr %9, align 8
  store ptr %10, ptr %8, align 8
  %.not.i.i.i = icmp eq ptr %10, null
  br i1 %.not.i.i.i, label %_ZNSt10shared_ptrIN32pxrInternal_v0_24__pxrReserved__19HdSampledDataSourceEEC2INS0_24HdTypedSampledDataSourceIiEEvEERKS_IT_E.exit, label %11

11:                                               ; preds = %4
  %12 = getelementptr inbounds nuw i8, ptr %10, i64 8
  %13 = load i8, ptr @__libc_single_threaded, align 1
  %.not.i.i.i.i = icmp eq i8 %13, 0
  br i1 %.not.i.i.i.i, label %17, label %14

14:                                               ; preds = %11
  %15 = load i32, ptr %12, align 4
  %16 = add nsw i32 %15, 1
  store i32 %16, ptr %12, align 4
  br label %_ZNSt10shared_ptrIN32pxrInternal_v0_24__pxrReserved__19HdSampledDataSourceEEC2INS0_24HdTypedSampledDataSourceIiEEvEERKS_IT_E.exit

17:                                               ; preds = %11
  %18 = atomicrmw volatile add ptr %12, i32 1 acq_rel, align 4
  br label %_ZNSt10shared_ptrIN32pxrInternal_v0_24__pxrReserved__19HdSampledDataSourceEEC2INS0_24HdTypedSampledDataSourceIiEEvEERKS_IT_E.exit

_ZNSt10shared_ptrIN32pxrInternal_v0_24__pxrReserved__19HdSampledDataSourceEEC2INS0_24HdTypedSampledDataSourceIiEEvEERKS_IT_E.exit: ; preds = %4, %14, %17
  %19 = getelementptr inbounds nuw i8, ptr %6, i64 16
  %20 = getelementptr inbounds nuw i8, ptr %5, i64 16
  %21 = load ptr, ptr %20, align 8
  store ptr %21, ptr %19, align 16
  %22 = getelementptr inbounds nuw i8, ptr %6, i64 24
  %23 = getelementptr inbounds nuw i8, ptr %5, i64 24
  %24 = load ptr, ptr %23, align 8
  store ptr %24, ptr %22, align 8
  %.not.i.i.i6 = icmp eq ptr %24, null
  br i1 %.not.i.i.i6, label %_ZNSt10shared_ptrIN32pxrInternal_v0_24__pxrReserved__19HdSampledDataSourceEEC2INS0_24HdTypedSampledDataSourceIiEEvEERKS_IT_E.exit8, label %25

25:                                               ; preds = %_ZNSt10shared_ptrIN32pxrInternal_v0_24__pxrReserved__19HdSampledDataSourceEEC2INS0_24HdTypedSampledDataSourceIiEEvEERKS_IT_E.exit
  %26 = getelementptr inbounds nuw i8, ptr %24, i64 8
  %27 = load i8, ptr @__libc_single_threaded, align 1
  %.not.i.i.i.i7 = icmp eq i8 %27, 0
  br i1 %.not.i.i.i.i7, label %31, label %28

28:                                               ; preds = %25
  %29 = load i32, ptr %26, align 4
  %30 = add nsw i32 %29, 1
  store i32 %30, ptr %26, align 4
  br label %_ZNSt10shared_ptrIN32pxrInternal_v0_24__pxrReserved__19HdSampledDataSourceEEC2INS0_24HdTypedSampledDataSourceIiEEvEERKS_IT_E.exit8

31:                                               ; preds = %25
  %32 = atomicrmw volatile add ptr %26, i32 1 acq_rel, align 4
  br label %_ZNSt10shared_ptrIN32pxrInternal_v0_24__pxrReserved__19HdSampledDataSourceEEC2INS0_24HdTypedSampledDataSourceIiEEvEERKS_IT_E.exit8

_ZNSt10shared_ptrIN32pxrInternal_v0_24__pxrReserved__19HdSampledDataSourceEEC2INS0_24HdTypedSampledDataSourceIiEEvEERKS_IT_E.exit8: ; preds = %_ZNSt10shared_ptrIN32pxrInternal_v0_24__pxrReserved__19HdSampledDataSourceEEC2INS0_24HdTypedSampledDataSourceIiEEvEERKS_IT_E.exit, %28, %31
  %33 = invoke noundef zeroext i1 @_ZN32pxrInternal_v0_24__pxrReserved__45HdGetMergedContributingSampleTimesForIntervalEmPKSt10shared_ptrINS_19HdSampledDataSourceEEffPSt6vectorIfSaIfEE(i64 noundef 2, ptr noundef nonnull %6, float noundef %1, float noundef %2, ptr noundef %3)
          to label %34 unwind label %36

34:                                               ; preds = %_ZNSt10shared_ptrIN32pxrInternal_v0_24__pxrReserved__19HdSampledDataSourceEEC2INS0_24HdTypedSampledDataSourceIiEEvEERKS_IT_E.exit8
  %35 = getelementptr inbounds nuw i8, ptr %6, i64 32
  br label %39

36:                                               ; preds = %_ZNSt10shared_ptrIN32pxrInternal_v0_24__pxrReserved__19HdSampledDataSourceEEC2INS0_24HdTypedSampledDataSourceIiEEvEERKS_IT_E.exit8
  %37 = landingpad { ptr, i32 }
          cleanup
  %38 = getelementptr inbounds nuw i8, ptr %6, i64 32
  br label %80

39:                                               ; preds = %_ZNSt10shared_ptrIN32pxrInternal_v0_24__pxrReserved__19HdSampledDataSourceEED2Ev.exit, %34
  %40 = phi ptr [ %35, %34 ], [ %41, %_ZNSt10shared_ptrIN32pxrInternal_v0_24__pxrReserved__19HdSampledDataSourceEED2Ev.exit ]
  %41 = getelementptr inbounds i8, ptr %40, i64 -16
  %42 = getelementptr inbounds i8, ptr %40, i64 -8
  %43 = load ptr, ptr %42, align 8
  %.not.i.i.i9 = icmp eq ptr %43, null
  br i1 %.not.i.i.i9, label %_ZNSt10shared_ptrIN32pxrInternal_v0_24__pxrReserved__19HdSampledDataSourceEED2Ev.exit, label %44

44:                                               ; preds = %39
  %45 = getelementptr inbounds nuw i8, ptr %43, i64 8
  %46 = load atomic i64, ptr %45 acquire, align 8
  %47 = icmp eq i64 %46, 4294967297
  %48 = trunc i64 %46 to i32
  br i1 %47, label %49, label %54

49:                                               ; preds = %44
  store i32 0, ptr %45, align 8
  %50 = getelementptr inbounds nuw i8, ptr %43, i64 12
  store i32 0, ptr %50, align 4
  %51 = load ptr, ptr %43, align 8
  %52 = getelementptr inbounds nuw i8, ptr %51, i64 16
  %53 = load ptr, ptr %52, align 8
  call void %53(ptr noundef nonnull align 8 dereferenceable(16) %43) #21
  br label %_ZNSt16_Sp_counted_baseILN9__gnu_cxx12_Lock_policyE2EE24_M_release_last_use_coldEv.exit.sink.split.i.i.i.i

54:                                               ; preds = %44
  %55 = load i8, ptr @__libc_single_threaded, align 1
  %.not.i.i.i.i10 = icmp eq i8 %55, 0
  br i1 %.not.i.i.i.i10, label %58, label %56

56:                                               ; preds = %54
  %57 = add nsw i32 %48, -1
  store i32 %57, ptr %45, align 4
  br label %60

58:                                               ; preds = %54
  %59 = atomicrmw volatile add ptr %45, i32 -1 acq_rel, align 4
  br label %60

60:                                               ; preds = %58, %56
  %.0.i.i.i.i = phi i32 [ %48, %56 ], [ %59, %58 ]
  %61 = icmp eq i32 %.0.i.i.i.i, 1
  br i1 %61, label %62, label %_ZNSt10shared_ptrIN32pxrInternal_v0_24__pxrReserved__19HdSampledDataSourceEED2Ev.exit

62:                                               ; preds = %60
  %63 = load ptr, ptr %43, align 8
  %64 = getelementptr inbounds nuw i8, ptr %63, i64 16
  %65 = load ptr, ptr %64, align 8
  call void %65(ptr noundef nonnull align 8 dereferenceable(16) %43) #21
  %66 = getelementptr inbounds nuw i8, ptr %43, i64 12
  %67 = load i8, ptr @__libc_single_threaded, align 1
  %.not.i.i.i.i.i.i = icmp eq i8 %67, 0
  br i1 %.not.i.i.i.i.i.i, label %71, label %68

68:                                               ; preds = %62
  %69 = load i32, ptr %66, align 4
  %70 = add nsw i32 %69, -1
  store i32 %70, ptr %66, align 4
  br label %73

71:                                               ; preds = %62
  %72 = atomicrmw volatile add ptr %66, i32 -1 acq_rel, align 4
  br label %73

73:                                               ; preds = %71, %68
  %.0.i.i.i.i.i.i = phi i32 [ %69, %68 ], [ %72, %71 ]
  %74 = icmp eq i32 %.0.i.i.i.i.i.i, 1
  br i1 %74, label %_ZNSt16_Sp_counted_baseILN9__gnu_cxx12_Lock_policyE2EE24_M_release_last_use_coldEv.exit.sink.split.i.i.i.i, label %_ZNSt10shared_ptrIN32pxrInternal_v0_24__pxrReserved__19HdSampledDataSourceEED2Ev.exit

_ZNSt16_Sp_counted_baseILN9__gnu_cxx12_Lock_policyE2EE24_M_release_last_use_coldEv.exit.sink.split.i.i.i.i: ; preds = %73, %49
  %75 = load ptr, ptr %43, align 8
  %76 = getelementptr inbounds nuw i8, ptr %75, i64 24
  %77 = load ptr, ptr %76, align 8
  call void %77(ptr noundef nonnull align 8 dereferenceable(16) %43) #21
  br label %_ZNSt10shared_ptrIN32pxrInternal_v0_24__pxrReserved__19HdSampledDataSourceEED2Ev.exit

_ZNSt10shared_ptrIN32pxrInternal_v0_24__pxrReserved__19HdSampledDataSourceEED2Ev.exit: ; preds = %39, %60, %73, %_ZNSt16_Sp_counted_baseILN9__gnu_cxx12_Lock_policyE2EE24_M_release_last_use_coldEv.exit.sink.split.i.i.i.i
  %78 = icmp eq ptr %41, %6
  br i1 %78, label %79, label %39

79:                                               ; preds = %_ZNSt10shared_ptrIN32pxrInternal_v0_24__pxrReserved__19HdSampledDataSourceEED2Ev.exit
  call void @_ZNSt4pairISt10shared_ptrIN32pxrInternal_v0_24__pxrReserved__24HdTypedSampledDataSourceIiEEES4_ED2Ev(ptr noundef nonnull align 8 dereferenceable(32) %5) #21
  ret i1 %33

80:                                               ; preds = %80, %36
  %81 = phi ptr [ %38, %36 ], [ %82, %80 ]
  %82 = getelementptr inbounds i8, ptr %81, i64 -16
  call void @_ZNSt10shared_ptrIN32pxrInternal_v0_24__pxrReserved__19HdSampledDataSourceEED2Ev(ptr noundef nonnull align 8 dereferenceable(16) %82) #21
  %83 = icmp eq ptr %82, %6
  br i1 %83, label %84, label %80

84:                                               ; preds = %80
  call void @_ZNSt4pairISt10shared_ptrIN32pxrInternal_v0_24__pxrReserved__24HdTypedSampledDataSourceIiEEES4_ED2Ev(ptr noundef nonnull align 8 dereferenceable(32) %5) #21
  resume { ptr, i32 } %37
}